target datalayout = "e-m:e-p270:32:32-p271:32:32-p272:64:64-i64:64-i128:128-f80:128-n8:16:32:64-S128"
target triple = "x86_64-pc-linux-gnu"

%struct.wc_Sha512 = type { [8 x i64], [16 x i64], i32, i64, i64, ptr }

; Function Attrs: inlinehint nounwind uwtable
define internal i64 @rotlFixed64(i64 noundef %0, i64 noundef %1) #1 {
  %3 = alloca i64, align 8
  %4 = alloca i64, align 8
  store i64 %0, ptr %3, align 8, !tbaa !14
  store i64 %1, ptr %4, align 8, !tbaa !14
  %5 = load i64, ptr %3, align 8, !tbaa !14
  %6 = load i64, ptr %4, align 8, !tbaa !14
  %7 = shl i64 %5, %6
  %8 = load i64, ptr %3, align 8, !tbaa !14
  %9 = load i64, ptr %4, align 8, !tbaa !14
  %10 = sub i64 64, %9
  %11 = lshr i64 %8, %10
  %12 = or i64 %7, %11
  ret i64 %12
}

; Function Attrs: inlinehint nounwind uwtable
define internal i64 @ByteReverseWord64(i64 noundef %0) #1 {
  %2 = alloca i64, align 8
  store i64 %0, ptr %2, align 8, !tbaa !14
  %3 = load i64, ptr %2, align 8, !tbaa !14
  %4 = and i64 %3, -71777214294589696
  %5 = lshr i64 %4, 8
  %6 = load i64, ptr %2, align 8, !tbaa !14
  %7 = and i64 %6, 71777214294589695
  %8 = shl i64 %7, 8
  %9 = or i64 %5, %8
  store i64 %9, ptr %2, align 8, !tbaa !14
  %10 = load i64, ptr %2, align 8, !tbaa !14
  %11 = and i64 %10, -281470681808896
  %12 = lshr i64 %11, 16
  %13 = load i64, ptr %2, align 8, !tbaa !14
  %14 = and i64 %13, 281470681808895
  %15 = shl i64 %14, 16
  %16 = or i64 %12, %15
  store i64 %16, ptr %2, align 8, !tbaa !14
  %17 = load i64, ptr %2, align 8, !tbaa !14
  %18 = call i64 @rotlFixed64(i64 noundef %17, i64 noundef 32)
  ret i64 %18
}

; Function Attrs: inlinehint nounwind uwtable
define internal void @ByteReverseWords64(ptr noundef %0, ptr noundef %1, i32 noundef %2) #1 {
  %4 = alloca ptr, align 8
  %5 = alloca ptr, align 8
  %6 = alloca i32, align 4
  %7 = alloca i32, align 4
  %8 = alloca i32, align 4
  store ptr %0, ptr %4, align 8, !tbaa !24
  store ptr %1, ptr %5, align 8, !tbaa !24
  store i32 %2, ptr %6, align 4, !tbaa !9
  call void @llvm.lifetime.start.p0(i64 4, ptr %7) #5
  %9 = load i32, ptr %6, align 4, !tbaa !9
  %10 = udiv i32 %9, 8
  store i32 %10, ptr %7, align 4, !tbaa !9
  call void @llvm.lifetime.start.p0(i64 4, ptr %8) #5
  store i32 0, ptr %8, align 4, !tbaa !9
  br label %11

11:                                               ; preds = %26, %3
  %12 = load i32, ptr %8, align 4, !tbaa !9
  %13 = load i32, ptr %7, align 4, !tbaa !9
  %14 = icmp ult i32 %12, %13
  br i1 %14, label %15, label %29

15:                                               ; preds = %11
  %16 = load ptr, ptr %5, align 8, !tbaa !24
  %17 = load i32, ptr %8, align 4, !tbaa !9
  %18 = zext i32 %17 to i64
  %19 = getelementptr inbounds nuw i64, ptr %16, i64 %18
  %20 = load i64, ptr %19, align 8, !tbaa !14
  %21 = call i64 @ByteReverseWord64(i64 noundef %20)
  %22 = load ptr, ptr %4, align 8, !tbaa !24
  %23 = load i32, ptr %8, align 4, !tbaa !9
  %24 = zext i32 %23 to i64
  %25 = getelementptr inbounds nuw i64, ptr %22, i64 %24
  store i64 %21, ptr %25, align 8, !tbaa !14
  br label %26

26:                                               ; preds = %15
  %27 = load i32, ptr %8, align 4, !tbaa !9
  %28 = add i32 %27, 1
  store i32 %28, ptr %8, align 4, !tbaa !9
  br label %11, !llvm.loop !28

29:                                               ; preds = %11
  call void @llvm.lifetime.end.p0(i64 4, ptr %8) #5
  call void @llvm.lifetime.end.p0(i64 4, ptr %7) #5
  ret void
}

; Function Attrs: nounwind uwtable
define internal i32 @Sha512FinalRaw(ptr noundef %0, ptr noundef %1, i64 noundef %2) #0 {
  %4 = alloca i32, align 4
  %5 = alloca ptr, align 8
  %6 = alloca ptr, align 8
  %7 = alloca i64, align 8
  store ptr %0, ptr %5, align 8, !tbaa !3
  store ptr %1, ptr %6, align 8, !tbaa !18
  store i64 %2, ptr %7, align 8, !tbaa !14
  %8 = load ptr, ptr %5, align 8, !tbaa !3
  %9 = icmp eq ptr %8, null
  br i1 %9, label %13, label %10

10:                                               ; preds = %3
  %11 = load ptr, ptr %6, align 8, !tbaa !18
  %12 = icmp eq ptr %11, null
  br i1 %12, label %13, label %14

13:                                               ; preds = %10, %3
  store i32 -173, ptr %4, align 4
  br label %26

14:                                               ; preds = %10
  %15 = load ptr, ptr %5, align 8, !tbaa !3
  %16 = getelementptr inbounds nuw %struct.wc_Sha512, ptr %15, i32 0, i32 0
  %17 = getelementptr inbounds [8 x i64], ptr %16, i64 0, i64 0
  %18 = load ptr, ptr %5, align 8, !tbaa !3
  %19 = getelementptr inbounds nuw %struct.wc_Sha512, ptr %18, i32 0, i32 0
  %20 = getelementptr inbounds [8 x i64], ptr %19, i64 0, i64 0
  call void @ByteReverseWords64(ptr noundef %17, ptr noundef %20, i32 noundef 64)
  %21 = load ptr, ptr %6, align 8, !tbaa !18
  %22 = load ptr, ptr %5, align 8, !tbaa !3
  %23 = getelementptr inbounds nuw %struct.wc_Sha512, ptr %22, i32 0, i32 0
  %24 = getelementptr inbounds [8 x i64], ptr %23, i64 0, i64 0
  %25 = load i64, ptr %7, align 8, !tbaa !14
  call void @llvm.memcpy.p0.p0.i64(ptr align 1 %21, ptr align 8 %24, i64 %25, i1 false)
  store i32 0, ptr %4, align 4
  br label %26

26:                                               ; preds = %14, %13
  %27 = load i32, ptr %4, align 4
  ret i32 %27
}

; Function Attrs: nounwind uwtable
define i32 @wc_Sha512FinalRaw(ptr noundef %0, ptr noundef %1) #0 {
  %3 = alloca ptr, align 8
  %4 = alloca ptr, align 8
  store ptr %0, ptr %3, align 8, !tbaa !3
  store ptr %1, ptr %4, align 8, !tbaa !18
  %5 = load ptr, ptr %3, align 8, !tbaa !3
  %6 = load ptr, ptr %4, align 8, !tbaa !18
  %7 = call i32 @Sha512FinalRaw(ptr noundef %5, ptr noundef %6, i64 noundef 64)
  ret i32 %7
}