; Function Attrs: nofree norecurse nosync nounwind memory(argmem: readwrite) uwtable
define range(i32 -173, 1) i32 @wc_Sha512FinalRaw(ptr noundef captures(address_is_null) %0, ptr noundef writeonly captures(address_is_null) %1) local_unnamed_addr #2 {
  %3 = icmp eq ptr %0, null
  %4 = icmp eq ptr %1, null
  %or.cond.i = or i1 %3, %4
  br i1 %or.cond.i, label %Sha512FinalRaw.exit, label %.lr.ph.i.i

.lr.ph.i.i:                                       ; preds = %2, %.lr.ph.i.i
  %indvars.iv.i.i = phi i64 [ %indvars.iv.next.i.i, %.lr.ph.i.i ], [ 0, %2 ]
  %5 = getelementptr inbounds nuw i64, ptr %0, i64 %indvars.iv.i.i
  %6 = load i64, ptr %5, align 8, !tbaa !10
  %7 = tail call noundef i64 @llvm.bswap.i64(i64 %6)
  store i64 %7, ptr %5, align 8, !tbaa !10
  %indvars.iv.next.i.i = add nuw nsw i64 %indvars.iv.i.i, 1
  %exitcond.not.i.i = icmp eq i64 %indvars.iv.next.i.i, 8
  br i1 %exitcond.not.i.i, label %ByteReverseWords64.exit.i, label %.lr.ph.i.i, !llvm.loop !14

ByteReverseWords64.exit.i:                        ; preds = %.lr.ph.i.i
  tail call void @llvm.memcpy.p0.p0.i64(ptr noundef nonnull align 1 dereferenceable(64) %1, ptr noundef nonnull align 8 dereferenceable(64) %0, i64 64, i1 false)
  br label %Sha512FinalRaw.exit

Sha512FinalRaw.exit:                              ; preds = %2, %ByteReverseWords64.exit.i
  %.0.i = phi i32 [ 0, %ByteReverseWords64.exit.i ], [ -173, %2 ]
  ret i32 %.0.i
}